target datalayout = "e-m:e-p270:32:32-p271:32:32-p272:64:64-i64:64-i128:128-f80:128-n8:16:32:64-S128"
target triple = "x86_64-pc-linux-gnu"

%struct.ForEachState = type { ptr, i32 }
%struct.List = type { i32, i32, i32, ptr, [0 x %union.ListCell] }
%union.ListCell = type { ptr }

@.str.1 = private unnamed_addr constant [10 x i8] c"regproc.c\00", align 1
@.str.35 = private unnamed_addr constant [20 x i8] c"invalid name syntax\00", align 1
@__func__.stringToQualifiedNameList = private unnamed_addr constant [26 x i8] c"stringToQualifiedNameList\00", align 1

; Function Attrs: nounwind uwtable
define dso_local ptr @stringToQualifiedNameList(ptr noundef %0, ptr noundef %1) #0 {
  %3 = alloca ptr, align 8
  %4 = alloca ptr, align 8
  %5 = alloca ptr, align 8
  %6 = alloca ptr, align 8
  %7 = alloca ptr, align 8
  %8 = alloca ptr, align 8
  %9 = alloca ptr, align 8
  %10 = alloca ptr, align 8
  %11 = alloca i32, align 4
  %12 = alloca ptr, align 8
  %13 = alloca %struct.ForEachState, align 8
  %14 = alloca ptr, align 8
  store ptr %0, ptr %4, align 8
  store ptr %1, ptr %5, align 8
  call void @llvm.lifetime.start.p0(i64 8, ptr %6) #8
  call void @llvm.lifetime.start.p0(i64 8, ptr %7) #8
  store ptr null, ptr %7, align 8
  call void @llvm.lifetime.start.p0(i64 8, ptr %8) #8
  call void @llvm.lifetime.start.p0(i64 8, ptr %9) #8
  %15 = load ptr, ptr %4, align 8
  %16 = call ptr @pstrdup(ptr noundef %15)
  store ptr %16, ptr %6, align 8
  %17 = load ptr, ptr %6, align 8
  %18 = call zeroext i1 @SplitIdentifierString(ptr noundef %17, i8 noundef signext 46, ptr noundef %8)
  br i1 %18, label %34, label %19

19:                                               ; preds = %2
  br label %20

20:                                               ; preds = %19
  br label %21

21:                                               ; preds = %20
  call void @llvm.lifetime.start.p0(i64 8, ptr %10) #8
  %22 = load ptr, ptr %5, align 8
  store ptr %22, ptr %10, align 8
  %23 = load ptr, ptr %10, align 8
  %24 = call zeroext i1 @errsave_start(ptr noundef %23, ptr noundef null)
  br i1 %24, label %25, label %29

25:                                               ; preds = %21
  %26 = call i32 @errcode(i32 noundef 33579140)
  %27 = call i32 (ptr, ...) @errmsg(ptr noundef @.str.35)
  %28 = load ptr, ptr %10, align 8
  call void @errsave_finish(ptr noundef %28, ptr noundef @.str.1, i32 noundef 1810, ptr noundef @__func__.stringToQualifiedNameList)
  br label %29

29:                                               ; preds = %25, %21
  call void @llvm.lifetime.end.p0(i64 8, ptr %10) #8
  br label %30

30:                                               ; preds = %29
  br label %31

31:                                               ; preds = %30
  store ptr null, ptr %3, align 8
  store i32 1, ptr %11, align 4
  br label %99

32:                                               ; No predecessors!
  br label %33

33:                                               ; preds = %32
  br label %34

34:                                               ; preds = %33, %2
  %35 = load ptr, ptr %8, align 8
  %36 = icmp eq ptr %35, null
  br i1 %36, label %37, label %52

37:                                               ; preds = %34
  br label %38

38:                                               ; preds = %37
  br label %39

39:                                               ; preds = %38
  call void @llvm.lifetime.start.p0(i64 8, ptr %12) #8
  %40 = load ptr, ptr %5, align 8
  store ptr %40, ptr %12, align 8
  %41 = load ptr, ptr %12, align 8
  %42 = call zeroext i1 @errsave_start(ptr noundef %41, ptr noundef null)
  br i1 %42, label %43, label %47

43:                                               ; preds = %39
  %44 = call i32 @errcode(i32 noundef 33579140)
  %45 = call i32 (ptr, ...) @errmsg(ptr noundef @.str.35)
  %46 = load ptr, ptr %12, align 8
  call void @errsave_finish(ptr noundef %46, ptr noundef @.str.1, i32 noundef 1815, ptr noundef @__func__.stringToQualifiedNameList)
  br label %47

47:                                               ; preds = %43, %39
  call void @llvm.lifetime.end.p0(i64 8, ptr %12) #8
  br label %48

48:                                               ; preds = %47
  br label %49

49:                                               ; preds = %48
  store ptr null, ptr %3, align 8
  store i32 1, ptr %11, align 4
  br label %99

50:                                               ; No predecessors!
  br label %51

51:                                               ; preds = %50
  br label %52

52:                                               ; preds = %51, %34
  call void @llvm.lifetime.start.p0(i64 16, ptr %13) #8
  %53 = getelementptr inbounds nuw %struct.ForEachState, ptr %13, i32 0, i32 0
  %54 = load ptr, ptr %8, align 8
  store ptr %54, ptr %53, align 8
  %55 = getelementptr inbounds nuw %struct.ForEachState, ptr %13, i32 0, i32 1
  store i32 0, ptr %55, align 8
  %56 = getelementptr i8, ptr %13, i64 12
  call void @llvm.memset.p0.i64(ptr align 4 %56, i8 0, i64 4, i1 false)
  br label %57

57:                                               ; preds = %91, %52
  %58 = getelementptr inbounds nuw %struct.ForEachState, ptr %13, i32 0, i32 0
  %59 = load ptr, ptr %58, align 8
  %60 = icmp ne ptr %59, null
  br i1 %60, label %61, label %78

61:                                               ; preds = %57
  %62 = getelementptr inbounds nuw %struct.ForEachState, ptr %13, i32 0, i32 1
  %63 = load i32, ptr %62, align 8
  %64 = getelementptr inbounds nuw %struct.ForEachState, ptr %13, i32 0, i32 0
  %65 = load ptr, ptr %64, align 8
  %66 = getelementptr inbounds nuw %struct.List, ptr %65, i32 0, i32 1
  %67 = load i32, ptr %66, align 4
  %68 = icmp slt i32 %63, %67
  br i1 %68, label %69, label %78

69:                                               ; preds = %61
  %70 = getelementptr inbounds nuw %struct.ForEachState, ptr %13, i32 0, i32 0
  %71 = load ptr, ptr %70, align 8
  %72 = getelementptr inbounds nuw %struct.List, ptr %71, i32 0, i32 3
  %73 = load ptr, ptr %72, align 8
  %74 = getelementptr inbounds nuw %struct.ForEachState, ptr %13, i32 0, i32 1
  %75 = load i32, ptr %74, align 8
  %76 = sext i32 %75 to i64
  %77 = getelementptr inbounds %union.ListCell, ptr %73, i64 %76
  store ptr %77, ptr %9, align 8
  br label %79

78:                                               ; preds = %61, %57
  store ptr null, ptr %9, align 8
  br label %79

79:                                               ; preds = %78, %69
  %80 = phi i32 [ 1, %69 ], [ 0, %78 ]
  %81 = icmp ne i32 %80, 0
  br i1 %81, label %83, label %82

82:                                               ; preds = %79
  store i32 10, ptr %11, align 4
  call void @llvm.lifetime.end.p0(i64 16, ptr %13) #8
  br label %95

83:                                               ; preds = %79
  call void @llvm.lifetime.start.p0(i64 8, ptr %14) #8
  %84 = load ptr, ptr %9, align 8
  %85 = load ptr, ptr %84, align 8
  store ptr %85, ptr %14, align 8
  %86 = load ptr, ptr %7, align 8
  %87 = load ptr, ptr %14, align 8
  %88 = call ptr @pstrdup(ptr noundef %87)
  %89 = call ptr @makeString(ptr noundef %88)
  %90 = call ptr @lappend(ptr noundef %86, ptr noundef %89)
  store ptr %90, ptr %7, align 8
  call void @llvm.lifetime.end.p0(i64 8, ptr %14) #8
  br label %91

91:                                               ; preds = %83
  %92 = getelementptr inbounds nuw %struct.ForEachState, ptr %13, i32 0, i32 1
  %93 = load i32, ptr %92, align 8
  %94 = add i32 %93, 1
  store i32 %94, ptr %92, align 8
  br label %57, !llvm.loop !4

95:                                               ; preds = %82
  %96 = load ptr, ptr %6, align 8
  call void @pfree(ptr noundef %96)
  %97 = load ptr, ptr %8, align 8
  call void @list_free(ptr noundef %97)
  %98 = load ptr, ptr %7, align 8
  store ptr %98, ptr %3, align 8
  store i32 1, ptr %11, align 4
  br label %99

99:                                               ; preds = %95, %49, %31
  call void @llvm.lifetime.end.p0(i64 8, ptr %9) #8
  call void @llvm.lifetime.end.p0(i64 8, ptr %8) #8
  call void @llvm.lifetime.end.p0(i64 8, ptr %7) #8
  call void @llvm.lifetime.end.p0(i64 8, ptr %6) #8
  %100 = load ptr, ptr %3, align 8
  ret ptr %100
}