; Function Attrs: nounwind uwtable
define dso_local ptr @stringToQualifiedNameList(ptr noundef %0, ptr noundef %1) local_unnamed_addr #0 {
  %3 = alloca ptr, align 8
  call void @llvm.lifetime.start.p0(i64 8, ptr nonnull %3) #9
  %4 = tail call ptr @pstrdup(ptr noundef %0) #9
  %5 = call zeroext i1 @SplitIdentifierString(ptr noundef %4, i8 noundef signext 46, ptr noundef nonnull %3) #9
  br i1 %5, label %11, label %6

6:                                                ; preds = %2
  %7 = call zeroext i1 @errsave_start(ptr noundef %1, ptr noundef null) #9
  br i1 %7, label %8, label %32

8:                                                ; preds = %6
  %9 = call i32 @errcode(i32 noundef 33579140) #9
  %10 = call i32 (ptr, ...) @errmsg(ptr noundef nonnull @.str.35) #9
  call void @errsave_finish(ptr noundef %1, ptr noundef nonnull @.str.1, i32 noundef 1810, ptr noundef nonnull @__func__.stringToQualifiedNameList) #9
  br label %32

11:                                               ; preds = %2
  %12 = load ptr, ptr %3, align 8
  %13 = icmp eq ptr %12, null
  br i1 %13, label %17, label %.preheader

.preheader:                                       ; preds = %11
  %14 = getelementptr inbounds nuw i8, ptr %12, i64 4
  %15 = load i32, ptr %14, align 4
  %.not23 = icmp sgt i32 %15, 0
  br i1 %.not23, label %.lr.ph, label %._crit_edge

.lr.ph:                                           ; preds = %.preheader
  %16 = getelementptr inbounds nuw i8, ptr %12, i64 16
  br label %23

17:                                               ; preds = %11
  %18 = call zeroext i1 @errsave_start(ptr noundef %1, ptr noundef null) #9
  br i1 %18, label %19, label %32

19:                                               ; preds = %17
  %20 = call i32 @errcode(i32 noundef 33579140) #9
  %21 = call i32 (ptr, ...) @errmsg(ptr noundef nonnull @.str.35) #9
  call void @errsave_finish(ptr noundef %1, ptr noundef nonnull @.str.1, i32 noundef 1815, ptr noundef nonnull @__func__.stringToQualifiedNameList) #9
  br label %32

._crit_edge:                                      ; preds = %23, %.preheader
  %.018.lcssa = phi ptr [ null, %.preheader ], [ %29, %23 ]
  call void @pfree(ptr noundef %4) #9
  %22 = load ptr, ptr %3, align 8
  call void @list_free(ptr noundef %22) #9
  br label %32

23:                                               ; preds = %.lr.ph, %23
  %indvars.iv = phi i64 [ 0, %.lr.ph ], [ %indvars.iv.next, %23 ]
  %.01825 = phi ptr [ null, %.lr.ph ], [ %29, %23 ]
  %24 = load ptr, ptr %16, align 8
  %25 = getelementptr inbounds nuw %union.ListCell, ptr %24, i64 %indvars.iv
  %26 = load ptr, ptr %25, align 8
  %27 = call ptr @pstrdup(ptr noundef %26) #9
  %28 = call ptr @makeString(ptr noundef %27) #9
  %29 = call ptr @lappend(ptr noundef %.01825, ptr noundef %28) #9
  %indvars.iv.next = add nuw nsw i64 %indvars.iv, 1
  %30 = load i32, ptr %14, align 4
  %31 = sext i32 %30 to i64
  %.not = icmp slt i64 %indvars.iv.next, %31
  br i1 %.not, label %23, label %._crit_edge, !llvm.loop !4

32:                                               ; preds = %17, %19, %6, %8, %._crit_edge
  %.0 = phi ptr [ %.018.lcssa, %._crit_edge ], [ null, %8 ], [ null, %6 ], [ null, %19 ], [ null, %17 ]
  call void @llvm.lifetime.end.p0(i64 8, ptr nonnull %3) #9
  ret ptr %.0
}